target datalayout = "e-m:e-p270:32:32-p271:32:32-p272:64:64-i64:64-i128:128-f80:128-n8:16:32:64-S128"
target triple = "x86_64-pc-linux-gnu"

%struct._fvalue_t = type { ptr, %union.anon.1 }
%union.anon.1 = type { %struct._protocol_value_t }
%struct._protocol_value_t = type { ptr, i32, ptr, i8 }
%struct.ipv6_addr_and_prefix = type { %struct.e_in6_addr, i32 }
%struct.e_in6_addr = type { [16 x i8] }

@.str.2 = private unnamed_addr constant [46 x i8] c"\22%s\22 is not a valid hostname or IPv6 address.\00", align 1
@.str.3 = private unnamed_addr constant [23 x i8] c"%s in not a valid mask\00", align 1
@.str.4 = private unnamed_addr constant [50 x i8] c"Prefix in a IPv6 address should be <= 128, not %u\00", align 1

; Function Attrs: null_pointer_is_valid sspstrong uwtable
define internal zeroext i1 @ipv6_from_literal(ptr noundef %0, ptr noundef %1, i1 noundef zeroext %2, ptr noundef %3) #0 {
  %5 = alloca i1, align 1
  %6 = alloca ptr, align 8
  %7 = alloca ptr, align 8
  %8 = alloca i8, align 1
  %9 = alloca ptr, align 8
  %10 = alloca ptr, align 8
  %11 = alloca ptr, align 8
  %12 = alloca ptr, align 8
  %13 = alloca i32, align 4
  %14 = alloca ptr, align 8
  %15 = alloca i32, align 4
  store ptr %0, ptr %6, align 8
  store ptr %1, ptr %7, align 8
  %16 = zext i1 %2 to i8
  store i8 %16, ptr %8, align 1
  store ptr %3, ptr %9, align 8
  call void @llvm.lifetime.start.p0(i64 8, ptr %10) #7
  call void @llvm.lifetime.start.p0(i64 8, ptr %11) #7
  call void @llvm.lifetime.start.p0(i64 8, ptr %12) #7
  store ptr null, ptr %12, align 8
  call void @llvm.lifetime.start.p0(i64 4, ptr %13) #7
  call void @llvm.lifetime.start.p0(i64 8, ptr %14) #7
  %17 = load ptr, ptr %7, align 8
  %18 = call ptr @strchr(ptr noundef %17, i32 noundef 47) #8
  store ptr %18, ptr %10, align 8
  %19 = load ptr, ptr %10, align 8
  %20 = icmp ne ptr %19, null
  br i1 %20, label %21, label %30

21:                                               ; preds = %4
  %22 = load ptr, ptr %7, align 8
  %23 = load ptr, ptr %10, align 8
  %24 = load ptr, ptr %7, align 8
  %25 = ptrtoint ptr %23 to i64
  %26 = ptrtoint ptr %24 to i64
  %27 = sub i64 %25, %26
  %28 = call noalias ptr @wmem_strndup(ptr noundef null, ptr noundef %22, i64 noundef %27)
  store ptr %28, ptr %12, align 8
  %29 = load ptr, ptr %12, align 8
  store ptr %29, ptr %11, align 8
  br label %32

30:                                               ; preds = %4
  %31 = load ptr, ptr %7, align 8
  store ptr %31, ptr %11, align 8
  br label %32

32:                                               ; preds = %30, %21
  %33 = load ptr, ptr %11, align 8
  %34 = load ptr, ptr %6, align 8
  %35 = getelementptr inbounds nuw %struct._fvalue_t, ptr %34, i32 0, i32 1
  %36 = getelementptr inbounds nuw %struct.ipv6_addr_and_prefix, ptr %35, i32 0, i32 0
  %37 = call zeroext i1 @get_host_ipaddr6(ptr noundef %33, ptr noundef %36)
  br i1 %37, label %51, label %38

38:                                               ; preds = %32
  %39 = load ptr, ptr %9, align 8
  %40 = icmp ne ptr %39, null
  br i1 %40, label %41, label %45

41:                                               ; preds = %38
  %42 = load ptr, ptr %7, align 8
  %43 = call noalias ptr (ptr, ptr, ...) @wmem_strdup_printf(ptr noundef null, ptr noundef @.str.2, ptr noundef %42)
  %44 = load ptr, ptr %9, align 8
  store ptr %43, ptr %44, align 8
  br label %45

45:                                               ; preds = %41, %38
  %46 = load ptr, ptr %12, align 8
  %47 = icmp ne ptr %46, null
  br i1 %47, label %48, label %50

48:                                               ; preds = %45
  %49 = load ptr, ptr %12, align 8
  call void @wmem_free(ptr noundef null, ptr noundef %49)
  br label %50

50:                                               ; preds = %48, %45
  store i1 false, ptr %5, align 1
  store i32 1, ptr %15, align 4
  br label %98

51:                                               ; preds = %32
  %52 = load ptr, ptr %12, align 8
  %53 = icmp ne ptr %52, null
  br i1 %53, label %54, label %56

54:                                               ; preds = %51
  %55 = load ptr, ptr %12, align 8
  call void @wmem_free(ptr noundef null, ptr noundef %55)
  br label %56

56:                                               ; preds = %54, %51
  %57 = load ptr, ptr %10, align 8
  %58 = icmp ne ptr %57, null
  br i1 %58, label %59, label %93

59:                                               ; preds = %56
  %60 = load ptr, ptr %10, align 8
  %61 = getelementptr i8, ptr %60, i64 1
  %62 = call zeroext i1 @ws_strtou32(ptr noundef %61, ptr noundef %14, ptr noundef %13)
  br i1 %62, label %63, label %68

63:                                               ; preds = %59
  %64 = load ptr, ptr %14, align 8
  %65 = load i8, ptr %64, align 1
  %66 = sext i8 %65 to i32
  %67 = icmp ne i32 %66, 0
  br i1 %67, label %68, label %77

68:                                               ; preds = %63, %59
  %69 = load ptr, ptr %9, align 8
  %70 = icmp ne ptr %69, null
  br i1 %70, label %71, label %76

71:                                               ; preds = %68
  %72 = load ptr, ptr %10, align 8
  %73 = getelementptr i8, ptr %72, i64 1
  %74 = call noalias ptr (ptr, ptr, ...) @wmem_strdup_printf(ptr noundef null, ptr noundef @.str.3, ptr noundef %73)
  %75 = load ptr, ptr %9, align 8
  store ptr %74, ptr %75, align 8
  br label %76

76:                                               ; preds = %71, %68
  store i1 false, ptr %5, align 1
  store i32 1, ptr %15, align 4
  br label %98

77:                                               ; preds = %63
  %78 = load i32, ptr %13, align 4
  %79 = icmp ugt i32 %78, 128
  br i1 %79, label %80, label %88

80:                                               ; preds = %77
  %81 = load ptr, ptr %9, align 8
  %82 = icmp ne ptr %81, null
  br i1 %82, label %83, label %87

83:                                               ; preds = %80
  %84 = load i32, ptr %13, align 4
  %85 = call noalias ptr (ptr, ptr, ...) @wmem_strdup_printf(ptr noundef null, ptr noundef @.str.4, i32 noundef %84)
  %86 = load ptr, ptr %9, align 8
  store ptr %85, ptr %86, align 8
  br label %87

87:                                               ; preds = %83, %80
  store i1 false, ptr %5, align 1
  store i32 1, ptr %15, align 4
  br label %98

88:                                               ; preds = %77
  %89 = load i32, ptr %13, align 4
  %90 = load ptr, ptr %6, align 8
  %91 = getelementptr inbounds nuw %struct._fvalue_t, ptr %90, i32 0, i32 1
  %92 = getelementptr inbounds nuw %struct.ipv6_addr_and_prefix, ptr %91, i32 0, i32 1
  store i32 %89, ptr %92, align 8
  br label %97

93:                                               ; preds = %56
  %94 = load ptr, ptr %6, align 8
  %95 = getelementptr inbounds nuw %struct._fvalue_t, ptr %94, i32 0, i32 1
  %96 = getelementptr inbounds nuw %struct.ipv6_addr_and_prefix, ptr %95, i32 0, i32 1
  store i32 128, ptr %96, align 8
  br label %97

97:                                               ; preds = %93, %88
  store i1 true, ptr %5, align 1
  store i32 1, ptr %15, align 4
  br label %98

98:                                               ; preds = %97, %87, %76, %50
  call void @llvm.lifetime.end.p0(i64 8, ptr %14) #7
  call void @llvm.lifetime.end.p0(i64 4, ptr %13) #7
  call void @llvm.lifetime.end.p0(i64 8, ptr %12) #7
  call void @llvm.lifetime.end.p0(i64 8, ptr %11) #7
  call void @llvm.lifetime.end.p0(i64 8, ptr %10) #7
  %99 = load i1, ptr %5, align 1
  ret i1 %99
}