; Function Attrs: null_pointer_is_valid sspstrong uwtable
define internal noundef zeroext i1 @ipv6_from_literal(ptr noundef %0, ptr noundef %1, i1 zeroext %2, ptr noundef writeonly captures(address_is_null) %3) #0 {
  %5 = alloca i32, align 4
  %6 = alloca ptr, align 8
  call void @llvm.lifetime.start.p0(i64 4, ptr nonnull %5) #12
  call void @llvm.lifetime.start.p0(i64 8, ptr nonnull %6) #12
  %7 = tail call ptr @strchr(ptr noundef %1, i32 noundef 47) #13
  %.not = icmp eq ptr %7, null
  br i1 %.not, label %.thread, label %8

8:                                                ; preds = %4
  %9 = ptrtoint ptr %7 to i64
  %10 = ptrtoint ptr %1 to i64
  %11 = sub i64 %9, %10
  %12 = tail call noalias ptr @wmem_strndup(ptr noundef null, ptr noundef %1, i64 noundef %11)
  %13 = getelementptr inbounds nuw i8, ptr %0, i64 8
  %14 = tail call zeroext i1 @get_host_ipaddr6(ptr noundef %12, ptr noundef nonnull %13)
  br i1 %14, label %22, label %17

.thread:                                          ; preds = %4
  %15 = getelementptr inbounds nuw i8, ptr %0, i64 8
  %16 = tail call zeroext i1 @get_host_ipaddr6(ptr noundef %1, ptr noundef nonnull %15)
  br i1 %16, label %41, label %17

17:                                               ; preds = %.thread, %8
  %.042 = phi ptr [ null, %.thread ], [ %12, %8 ]
  %.not33 = icmp eq ptr %3, null
  br i1 %.not33, label %20, label %18

18:                                               ; preds = %17
  %19 = tail call noalias ptr (ptr, ptr, ...) @wmem_strdup_printf(ptr noundef null, ptr noundef nonnull @.str.2, ptr noundef %1)
  store ptr %19, ptr %3, align 8
  br label %20

20:                                               ; preds = %18, %17
  %.not34 = icmp eq ptr %.042, null
  br i1 %.not34, label %43, label %21

21:                                               ; preds = %20
  tail call void @wmem_free(ptr noundef null, ptr noundef nonnull %.042)
  br label %43

22:                                               ; preds = %8
  %.not35 = icmp eq ptr %12, null
  br i1 %.not35, label %24, label %23

23:                                               ; preds = %22
  tail call void @wmem_free(ptr noundef null, ptr noundef nonnull %12)
  br label %24

24:                                               ; preds = %23, %22
  %25 = getelementptr i8, ptr %7, i64 1
  %26 = call zeroext i1 @ws_strtou32(ptr noundef %25, ptr noundef nonnull %6, ptr noundef nonnull %5)
  br i1 %26, label %27, label %30

27:                                               ; preds = %24
  %28 = load ptr, ptr %6, align 8
  %29 = load i8, ptr %28, align 1
  %.not36 = icmp eq i8 %29, 0
  br i1 %.not36, label %33, label %30

30:                                               ; preds = %27, %24
  %.not38 = icmp eq ptr %3, null
  br i1 %.not38, label %43, label %31

31:                                               ; preds = %30
  %32 = call noalias ptr (ptr, ptr, ...) @wmem_strdup_printf(ptr noundef null, ptr noundef nonnull @.str.3, ptr noundef %25)
  store ptr %32, ptr %3, align 8
  br label %43

33:                                               ; preds = %27
  %34 = load i32, ptr %5, align 4
  %35 = icmp ugt i32 %34, 128
  br i1 %35, label %36, label %39

36:                                               ; preds = %33
  %.not37 = icmp eq ptr %3, null
  br i1 %.not37, label %43, label %37

37:                                               ; preds = %36
  %38 = call noalias ptr (ptr, ptr, ...) @wmem_strdup_printf(ptr noundef null, ptr noundef nonnull @.str.4, i32 noundef %34)
  store ptr %38, ptr %3, align 8
  br label %43

39:                                               ; preds = %33
  %40 = getelementptr inbounds nuw i8, ptr %0, i64 24
  store i32 %34, ptr %40, align 8
  br label %43

41:                                               ; preds = %.thread
  %42 = getelementptr inbounds nuw i8, ptr %0, i64 24
  store i32 128, ptr %42, align 8
  br label %43

43:                                               ; preds = %39, %41, %36, %37, %30, %31, %20, %21
  %.027 = phi i1 [ false, %21 ], [ false, %20 ], [ false, %31 ], [ false, %30 ], [ false, %37 ], [ false, %36 ], [ true, %41 ], [ true, %39 ]
  call void @llvm.lifetime.end.p0(i64 8, ptr nonnull %6) #12
  call void @llvm.lifetime.end.p0(i64 4, ptr nonnull %5) #12
  ret i1 %.027
}